target datalayout = "e-m:e-p270:32:32-p271:32:32-p272:64:64-i64:64-i128:128-f80:128-n8:16:32:64-S128"
target triple = "x86_64-pc-linux-gnu"

%struct.pack_idx_option = type { i32, i32, i32, i32, i32, ptr, i64 }
%struct.option = type { i32, i32, ptr, ptr, ptr, ptr, i32, ptr, i64, ptr, i64, ptr }

@.str.1 = private unnamed_addr constant [23 x i8] c"builtin/pack-objects.c\00", align 1
@.str.141 = private unnamed_addr constant [41 x i8] c"option callback does not expect negation\00", align 1
@.str.142 = private unnamed_addr constant [29 x i8] c"unsupported index version %s\00", align 1
@.str.143 = private unnamed_addr constant [23 x i8] c"bad index version '%s'\00", align 1

; Function Attrs: nounwind uwtable
define internal i32 @option_parse_index_version(ptr noundef %0, ptr noundef %1, i32 noundef %2) #0 {
  %4 = alloca ptr, align 8
  %5 = alloca ptr, align 8
  %6 = alloca i32, align 4
  %7 = alloca ptr, align 8
  %8 = alloca ptr, align 8
  %9 = alloca ptr, align 8
  store ptr %0, ptr %4, align 8, !tbaa !127
  store ptr %1, ptr %5, align 8, !tbaa !24
  store i32 %2, ptr %6, align 4, !tbaa !27
  call void @llvm.lifetime.start.p0(i64 8, ptr %7) #11
  %10 = load ptr, ptr %4, align 8, !tbaa !127
  %11 = getelementptr inbounds nuw %struct.option, ptr %10, i32 0, i32 3
  %12 = load ptr, ptr %11, align 8, !tbaa !41
  store ptr %12, ptr %7, align 8, !tbaa !130
  call void @llvm.lifetime.start.p0(i64 8, ptr %8) #11
  call void @llvm.lifetime.start.p0(i64 8, ptr %9) #11
  %13 = load ptr, ptr %5, align 8, !tbaa !24
  store ptr %13, ptr %9, align 8, !tbaa !24
  br label %14

14:                                               ; preds = %3
  %15 = load i32, ptr %6, align 4, !tbaa !27
  %16 = icmp ne i32 %15, 0
  br i1 %16, label %17, label %18

17:                                               ; preds = %14
  call void (ptr, i32, ptr, ...) @BUG_fl(ptr noundef @.str.1, i32 noundef 4273, ptr noundef @.str.141) #12
  unreachable

18:                                               ; preds = %14
  br label %19

19:                                               ; preds = %18
  br label %20

20:                                               ; preds = %19
  %21 = load ptr, ptr %9, align 8, !tbaa !24
  %22 = call i64 @strtoul(ptr noundef %21, ptr noundef %8, i32 noundef 10) #11
  %23 = trunc i64 %22 to i32
  %24 = load ptr, ptr %7, align 8, !tbaa !130
  %25 = getelementptr inbounds nuw %struct.pack_idx_option, ptr %24, i32 0, i32 1
  store i32 %23, ptr %25, align 4, !tbaa !132
  %26 = load ptr, ptr %7, align 8, !tbaa !130
  %27 = getelementptr inbounds nuw %struct.pack_idx_option, ptr %26, i32 0, i32 1
  %28 = load i32, ptr %27, align 4, !tbaa !132
  %29 = icmp ugt i32 %28, 2
  br i1 %29, label %30, label %33

30:                                               ; preds = %20
  %31 = call ptr @_(ptr noundef @.str.142)
  %32 = load ptr, ptr %9, align 8, !tbaa !24
  call void (ptr, ...) @die(ptr noundef %31, ptr noundef %32) #12
  unreachable

33:                                               ; preds = %20
  %34 = load ptr, ptr %8, align 8, !tbaa !24
  %35 = load i8, ptr %34, align 1, !tbaa !26
  %36 = sext i8 %35 to i32
  %37 = icmp eq i32 %36, 44
  br i1 %37, label %38, label %51

38:                                               ; preds = %33
  %39 = load ptr, ptr %8, align 8, !tbaa !24
  %40 = getelementptr inbounds i8, ptr %39, i64 1
  %41 = load i8, ptr %40, align 1, !tbaa !26
  %42 = sext i8 %41 to i32
  %43 = icmp ne i32 %42, 0
  br i1 %43, label %44, label %51

44:                                               ; preds = %38
  %45 = load ptr, ptr %8, align 8, !tbaa !24
  %46 = getelementptr inbounds i8, ptr %45, i64 1
  %47 = call i64 @strtoul(ptr noundef %46, ptr noundef %8, i32 noundef 0) #11
  %48 = trunc i64 %47 to i32
  %49 = load ptr, ptr %7, align 8, !tbaa !130
  %50 = getelementptr inbounds nuw %struct.pack_idx_option, ptr %49, i32 0, i32 2
  store i32 %48, ptr %50, align 8, !tbaa !133
  br label %51

51:                                               ; preds = %44, %38, %33
  %52 = load ptr, ptr %8, align 8, !tbaa !24
  %53 = load i8, ptr %52, align 1, !tbaa !26
  %54 = sext i8 %53 to i32
  %55 = icmp ne i32 %54, 0
  br i1 %55, label %62, label %56

56:                                               ; preds = %51
  %57 = load ptr, ptr %7, align 8, !tbaa !130
  %58 = getelementptr inbounds nuw %struct.pack_idx_option, ptr %57, i32 0, i32 2
  %59 = load i32, ptr %58, align 8, !tbaa !133
  %60 = and i32 %59, -2147483648
  %61 = icmp ne i32 %60, 0
  br i1 %61, label %62, label %65

62:                                               ; preds = %56, %51
  %63 = call ptr @_(ptr noundef @.str.143)
  %64 = load ptr, ptr %9, align 8, !tbaa !24
  call void (ptr, ...) @die(ptr noundef %63, ptr noundef %64) #12
  unreachable

65:                                               ; preds = %56
  call void @llvm.lifetime.end.p0(i64 8, ptr %9) #11
  call void @llvm.lifetime.end.p0(i64 8, ptr %8) #11
  call void @llvm.lifetime.end.p0(i64 8, ptr %7) #11
  ret i32 0
}