; Function Attrs: nounwind uwtable
define internal noundef i32 @option_parse_index_version(ptr noundef readonly captures(none) %0, ptr noundef %1, i32 noundef %2) #0 {
  %4 = alloca ptr, align 8
  %5 = getelementptr inbounds nuw i8, ptr %0, i64 16
  %6 = load ptr, ptr %5, align 8, !tbaa !35
  call void @llvm.lifetime.start.p0(i64 8, ptr nonnull %4) #25
  %.not = icmp eq i32 %2, 0
  br i1 %.not, label %8, label %7

7:                                                ; preds = %3
  tail call void (ptr, i32, ptr, ...) @BUG_fl(ptr noundef nonnull @.str.1, i32 noundef 4273, ptr noundef nonnull @.str.141) #26
  unreachable

8:                                                ; preds = %3
  %9 = call i64 @strtoul(ptr noundef %1, ptr noundef nonnull %4, i32 noundef 10) #25
  %10 = trunc i64 %9 to i32
  %11 = getelementptr inbounds nuw i8, ptr %6, i64 4
  store i32 %10, ptr %11, align 4, !tbaa !275
  %12 = icmp ugt i32 %10, 2
  br i1 %12, label %13, label %15

13:                                               ; preds = %8
  %14 = tail call fastcc ptr @_(ptr noundef nonnull @.str.142)
  tail call void (ptr, ...) @die(ptr noundef %14, ptr noundef %1) #26
  unreachable

15:                                               ; preds = %8
  %16 = load ptr, ptr %4, align 8, !tbaa !63
  %17 = load i8, ptr %16, align 1, !tbaa !29
  %18 = icmp eq i8 %17, 44
  br i1 %18, label %19, label %26

19:                                               ; preds = %15
  %20 = getelementptr inbounds nuw i8, ptr %16, i64 1
  %21 = load i8, ptr %20, align 1, !tbaa !29
  %.not9 = icmp eq i8 %21, 0
  br i1 %.not9, label %.thread, label %22

22:                                               ; preds = %19
  %23 = call i64 @strtoul(ptr noundef nonnull %20, ptr noundef nonnull %4, i32 noundef 0) #25
  %24 = trunc i64 %23 to i32
  %25 = getelementptr inbounds nuw i8, ptr %6, i64 8
  store i32 %24, ptr %25, align 8, !tbaa !276
  %.pre = load ptr, ptr %4, align 8, !tbaa !63
  %.pre12 = load i8, ptr %.pre, align 1, !tbaa !29
  br label %26

26:                                               ; preds = %22, %15
  %27 = phi i8 [ %.pre12, %22 ], [ %17, %15 ]
  %.not10 = icmp eq i8 %27, 0
  br i1 %.not10, label %28, label %.thread

28:                                               ; preds = %26
  %29 = getelementptr inbounds nuw i8, ptr %6, i64 8
  %30 = load i32, ptr %29, align 8, !tbaa !276
  %.not11 = icmp sgt i32 %30, -1
  br i1 %.not11, label %32, label %.thread

.thread:                                          ; preds = %19, %28, %26
  %31 = tail call fastcc ptr @_(ptr noundef nonnull @.str.143)
  tail call void (ptr, ...) @die(ptr noundef %31, ptr noundef %1) #26
  unreachable

32:                                               ; preds = %28
  call void @llvm.lifetime.end.p0(i64 8, ptr nonnull %4) #25
  ret i32 0
}